target datalayout = "e-m:e-p270:32:32-p271:32:32-p272:64:64-i64:64-i128:128-f80:128-n8:16:32:64-S128"
target triple = "x86_64-pc-linux-gnu"

@ett_bc_oct_3 = internal global i32 0, align 4
@ett_bc_oct_3a = internal global i32 0, align 4
@ett_bc_oct_4 = internal global i32 0, align 4
@ett_bc_oct_5 = internal global i32 0, align 4
@ett_bc_oct_5a = internal global i32 0, align 4
@ett_bc_oct_5b = internal global i32 0, align 4
@ett_bc_oct_6 = internal global i32 0, align 4
@ett_bc_oct_6a = internal global i32 0, align 4
@ett_bc_oct_6b = internal global i32 0, align 4
@ett_bc_oct_6c = internal global i32 0, align 4
@ett_bc_oct_6d = internal global i32 0, align 4
@ett_bc_oct_6e = internal global i32 0, align 4
@ett_bc_oct_6f = internal global i32 0, align 4
@ett_bc_oct_6g = internal global i32 0, align 4
@ett_bc_oct_7 = internal global i32 0, align 4
@ett_gsm_dtap_elem = hidden global [97 x i32] zeroinitializer, align 16
@.str.328 = private unnamed_addr constant [26 x i8] c"gsm_a.dtap.u2u_prot_discr\00", align 1
@ett_dtap_msg = internal global i32 0, align 4
@ett_dtap_oct_1 = internal global i32 0, align 4
@ett_cm_srvc_type = internal global i32 0, align 4
@ett_gsm_enc_info = internal global i32 0, align 4
@ett_epc_ue_tl_a_lb_setup = internal global i32 0, align 4
@ett_mm_timer = internal global i32 0, align 4
@ett_ue_test_loop_mode = internal global i32 0, align 4
@ett_gsm_dtap_msg_mm = internal global [24 x i32] zeroinitializer, align 16
@ett_gsm_dtap_msg_cc = internal global [36 x i32] zeroinitializer, align 16
@ett_gsm_dtap_msg_sms = internal global [4 x i32] zeroinitializer, align 16
@ett_gsm_dtap_msg_ss = internal global [4 x i32] zeroinitializer, align 16
@ett_gsm_dtap_msg_tp = internal global [42 x i32] zeroinitializer, align 16
@.str.677 = private unnamed_addr constant [15 x i8] c"GSM A-I/F DTAP\00", align 1
@.str.678 = private unnamed_addr constant [9 x i8] c"GSM DTAP\00", align 1
@.str.679 = private unnamed_addr constant [11 x i8] c"gsm_a.dtap\00", align 1
@proto_a_dtap = internal global i32 0, align 4
@.str.680 = private unnamed_addr constant [11 x i8] c"gsm_a_dtap\00", align 1
@dtap_handle = internal global ptr null, align 8
@.str.681 = private unnamed_addr constant [28 x i8] c"GSM User to User Signalling\00", align 1
@u2u_dissector_table = internal global ptr null, align 8

; Function Attrs: null_pointer_is_valid sspstrong uwtable
define hidden void @proto_register_gsm_a_dtap() #1 {
  %1 = alloca i32, align 4
  %2 = alloca i32, align 4
  %3 = alloca [229 x ptr], align 16
  %4 = alloca ptr, align 8
  call void @llvm.lifetime.start.p0(i64 4, ptr %1) #7
  call void @llvm.lifetime.start.p0(i64 4, ptr %2) #7
  call void @llvm.lifetime.start.p0(i64 1832, ptr %3) #7
  call void @llvm.lifetime.start.p0(i64 8, ptr %4) #7
  %5 = getelementptr [229 x ptr], ptr %3, i64 0, i64 0
  store ptr @ett_dtap_msg, ptr %5, align 16
  %6 = getelementptr [229 x ptr], ptr %3, i64 0, i64 1
  store ptr @ett_dtap_oct_1, ptr %6, align 8
  %7 = getelementptr [229 x ptr], ptr %3, i64 0, i64 2
  store ptr @ett_cm_srvc_type, ptr %7, align 16
  %8 = getelementptr [229 x ptr], ptr %3, i64 0, i64 3
  store ptr @ett_gsm_enc_info, ptr %8, align 8
  %9 = getelementptr [229 x ptr], ptr %3, i64 0, i64 4
  store ptr @ett_bc_oct_3, ptr %9, align 16
  %10 = getelementptr [229 x ptr], ptr %3, i64 0, i64 5
  store ptr @ett_bc_oct_3a, ptr %10, align 8
  %11 = getelementptr [229 x ptr], ptr %3, i64 0, i64 6
  store ptr @ett_bc_oct_4, ptr %11, align 16
  %12 = getelementptr [229 x ptr], ptr %3, i64 0, i64 7
  store ptr @ett_bc_oct_5, ptr %12, align 8
  %13 = getelementptr [229 x ptr], ptr %3, i64 0, i64 8
  store ptr @ett_bc_oct_5a, ptr %13, align 16
  %14 = getelementptr [229 x ptr], ptr %3, i64 0, i64 9
  store ptr @ett_bc_oct_5b, ptr %14, align 8
  %15 = getelementptr [229 x ptr], ptr %3, i64 0, i64 10
  store ptr @ett_bc_oct_6, ptr %15, align 16
  %16 = getelementptr [229 x ptr], ptr %3, i64 0, i64 11
  store ptr @ett_bc_oct_6a, ptr %16, align 8
  %17 = getelementptr [229 x ptr], ptr %3, i64 0, i64 12
  store ptr @ett_bc_oct_6b, ptr %17, align 16
  %18 = getelementptr [229 x ptr], ptr %3, i64 0, i64 13
  store ptr @ett_bc_oct_6c, ptr %18, align 8
  %19 = getelementptr [229 x ptr], ptr %3, i64 0, i64 14
  store ptr @ett_bc_oct_6d, ptr %19, align 16
  %20 = getelementptr [229 x ptr], ptr %3, i64 0, i64 15
  store ptr @ett_bc_oct_6e, ptr %20, align 8
  %21 = getelementptr [229 x ptr], ptr %3, i64 0, i64 16
  store ptr @ett_bc_oct_6f, ptr %21, align 16
  %22 = getelementptr [229 x ptr], ptr %3, i64 0, i64 17
  store ptr @ett_bc_oct_6g, ptr %22, align 8
  %23 = getelementptr [229 x ptr], ptr %3, i64 0, i64 18
  store ptr @ett_bc_oct_7, ptr %23, align 16
  %24 = getelementptr [229 x ptr], ptr %3, i64 0, i64 19
  store ptr @ett_epc_ue_tl_a_lb_setup, ptr %24, align 8
  %25 = getelementptr [229 x ptr], ptr %3, i64 0, i64 20
  store ptr @ett_mm_timer, ptr %25, align 16
  %26 = getelementptr [229 x ptr], ptr %3, i64 0, i64 21
  store ptr @ett_ue_test_loop_mode, ptr %26, align 8
  store i32 22, ptr %2, align 4
  store i32 0, ptr %1, align 4
  br label %27

27:                                               ; preds = %38, %0
  %28 = load i32, ptr %1, align 4
  %29 = zext i32 %28 to i64
  %30 = icmp ult i64 %29, 24
  br i1 %30, label %31, label %43

31:                                               ; preds = %27
  %32 = load i32, ptr %1, align 4
  %33 = zext i32 %32 to i64
  %34 = getelementptr [24 x i32], ptr @ett_gsm_dtap_msg_mm, i64 0, i64 %33
  %35 = load i32, ptr %2, align 4
  %36 = zext i32 %35 to i64
  %37 = getelementptr [229 x ptr], ptr %3, i64 0, i64 %36
  store ptr %34, ptr %37, align 8
  br label %38

38:                                               ; preds = %31
  %39 = load i32, ptr %1, align 4
  %40 = add i32 %39, 1
  store i32 %40, ptr %1, align 4
  %41 = load i32, ptr %2, align 4
  %42 = add i32 %41, 1
  store i32 %42, ptr %2, align 4
  br label %27, !llvm.loop !17

43:                                               ; preds = %27
  store i32 0, ptr %1, align 4
  br label %44

44:                                               ; preds = %55, %43
  %45 = load i32, ptr %1, align 4
  %46 = zext i32 %45 to i64
  %47 = icmp ult i64 %46, 36
  br i1 %47, label %48, label %60

48:                                               ; preds = %44
  %49 = load i32, ptr %1, align 4
  %50 = zext i32 %49 to i64
  %51 = getelementptr [36 x i32], ptr @ett_gsm_dtap_msg_cc, i64 0, i64 %50
  %52 = load i32, ptr %2, align 4
  %53 = zext i32 %52 to i64
  %54 = getelementptr [229 x ptr], ptr %3, i64 0, i64 %53
  store ptr %51, ptr %54, align 8
  br label %55

55:                                               ; preds = %48
  %56 = load i32, ptr %1, align 4
  %57 = add i32 %56, 1
  store i32 %57, ptr %1, align 4
  %58 = load i32, ptr %2, align 4
  %59 = add i32 %58, 1
  store i32 %59, ptr %2, align 4
  br label %44, !llvm.loop !18

60:                                               ; preds = %44
  store i32 0, ptr %1, align 4
  br label %61

61:                                               ; preds = %72, %60
  %62 = load i32, ptr %1, align 4
  %63 = zext i32 %62 to i64
  %64 = icmp ult i64 %63, 4
  br i1 %64, label %65, label %77

65:                                               ; preds = %61
  %66 = load i32, ptr %1, align 4
  %67 = zext i32 %66 to i64
  %68 = getelementptr [4 x i32], ptr @ett_gsm_dtap_msg_sms, i64 0, i64 %67
  %69 = load i32, ptr %2, align 4
  %70 = zext i32 %69 to i64
  %71 = getelementptr [229 x ptr], ptr %3, i64 0, i64 %70
  store ptr %68, ptr %71, align 8
  br label %72

72:                                               ; preds = %65
  %73 = load i32, ptr %1, align 4
  %74 = add i32 %73, 1
  store i32 %74, ptr %1, align 4
  %75 = load i32, ptr %2, align 4
  %76 = add i32 %75, 1
  store i32 %76, ptr %2, align 4
  br label %61, !llvm.loop !19

77:                                               ; preds = %61
  store i32 0, ptr %1, align 4
  br label %78

78:                                               ; preds = %89, %77
  %79 = load i32, ptr %1, align 4
  %80 = zext i32 %79 to i64
  %81 = icmp ult i64 %80, 4
  br i1 %81, label %82, label %94

82:                                               ; preds = %78
  %83 = load i32, ptr %1, align 4
  %84 = zext i32 %83 to i64
  %85 = getelementptr [4 x i32], ptr @ett_gsm_dtap_msg_ss, i64 0, i64 %84
  %86 = load i32, ptr %2, align 4
  %87 = zext i32 %86 to i64
  %88 = getelementptr [229 x ptr], ptr %3, i64 0, i64 %87
  store ptr %85, ptr %88, align 8
  br label %89

89:                                               ; preds = %82
  %90 = load i32, ptr %1, align 4
  %91 = add i32 %90, 1
  store i32 %91, ptr %1, align 4
  %92 = load i32, ptr %2, align 4
  %93 = add i32 %92, 1
  store i32 %93, ptr %2, align 4
  br label %78, !llvm.loop !20

94:                                               ; preds = %78
  store i32 0, ptr %1, align 4
  br label %95

95:                                               ; preds = %106, %94
  %96 = load i32, ptr %1, align 4
  %97 = zext i32 %96 to i64
  %98 = icmp ult i64 %97, 42
  br i1 %98, label %99, label %111

99:                                               ; preds = %95
  %100 = load i32, ptr %1, align 4
  %101 = zext i32 %100 to i64
  %102 = getelementptr [42 x i32], ptr @ett_gsm_dtap_msg_tp, i64 0, i64 %101
  %103 = load i32, ptr %2, align 4
  %104 = zext i32 %103 to i64
  %105 = getelementptr [229 x ptr], ptr %3, i64 0, i64 %104
  store ptr %102, ptr %105, align 8
  br label %106

106:                                              ; preds = %99
  %107 = load i32, ptr %1, align 4
  %108 = add i32 %107, 1
  store i32 %108, ptr %1, align 4
  %109 = load i32, ptr %2, align 4
  %110 = add i32 %109, 1
  store i32 %110, ptr %2, align 4
  br label %95, !llvm.loop !21

111:                                              ; preds = %95
  store i32 0, ptr %1, align 4
  br label %112

112:                                              ; preds = %123, %111
  %113 = load i32, ptr %1, align 4
  %114 = zext i32 %113 to i64
  %115 = icmp ult i64 %114, 97
  br i1 %115, label %116, label %128

116:                                              ; preds = %112
  %117 = load i32, ptr %1, align 4
  %118 = zext i32 %117 to i64
  %119 = getelementptr [97 x i32], ptr @ett_gsm_dtap_elem, i64 0, i64 %118
  %120 = load i32, ptr %2, align 4
  %121 = zext i32 %120 to i64
  %122 = getelementptr [229 x ptr], ptr %3, i64 0, i64 %121
  store ptr %119, ptr %122, align 8
  br label %123

123:                                              ; preds = %116
  %124 = load i32, ptr %1, align 4
  %125 = add i32 %124, 1
  store i32 %125, ptr %1, align 4
  %126 = load i32, ptr %2, align 4
  %127 = add i32 %126, 1
  store i32 %127, ptr %2, align 4
  br label %112, !llvm.loop !22

128:                                              ; preds = %112
  %129 = call i32 @proto_register_protocol(ptr noundef @.str.677, ptr noundef @.str.678, ptr noundef @.str.679)
  store i32 %129, ptr @proto_a_dtap, align 4
  %130 = load i32, ptr @proto_a_dtap, align 4
  call void @proto_register_field_array(i32 noundef %130, ptr noundef @proto_register_gsm_a_dtap.hf, i32 noundef 250)
  %131 = getelementptr inbounds [229 x ptr], ptr %3, i64 0, i64 0
  call void @proto_register_subtree_array(ptr noundef %131, i32 noundef 229)
  %132 = load i32, ptr @proto_a_dtap, align 4
  %133 = call ptr @expert_register_protocol(i32 noundef %132)
  store ptr %133, ptr %4, align 8
  %134 = load ptr, ptr %4, align 8
  call void @expert_register_field_array(ptr noundef %134, ptr noundef @proto_register_gsm_a_dtap.ei, i32 noundef 11)
  %135 = load i32, ptr @proto_a_dtap, align 4
  %136 = call ptr @register_dissector(ptr noundef @.str.680, ptr noundef @dissect_dtap, i32 noundef %135)
  store ptr %136, ptr @dtap_handle, align 8
  %137 = load i32, ptr @proto_a_dtap, align 4
  %138 = call ptr @register_dissector_table(ptr noundef @.str.328, ptr noundef @.str.681, i32 noundef %137, i32 noundef 4, i32 noundef 1)
  store ptr %138, ptr @u2u_dissector_table, align 8
  call void @llvm.lifetime.end.p0(i64 8, ptr %4) #7
  call void @llvm.lifetime.end.p0(i64 1832, ptr %3) #7
  call void @llvm.lifetime.end.p0(i64 4, ptr %2) #7
  call void @llvm.lifetime.end.p0(i64 4, ptr %1) #7
  ret void
}