; Function Attrs: null_pointer_is_valid sspstrong uwtable
define hidden void @proto_register_gsm_a_dtap() local_unnamed_addr #1 {
  %1 = alloca [229 x ptr], align 16
  call void @llvm.lifetime.start.p0(i64 1832, ptr nonnull %1) #8
  store ptr @ett_dtap_msg, ptr %1, align 16
  %2 = getelementptr inbounds nuw i8, ptr %1, i64 8
  store ptr @ett_dtap_oct_1, ptr %2, align 8
  %3 = getelementptr inbounds nuw i8, ptr %1, i64 16
  store ptr @ett_cm_srvc_type, ptr %3, align 16
  %4 = getelementptr inbounds nuw i8, ptr %1, i64 24
  store ptr @ett_gsm_enc_info, ptr %4, align 8
  %5 = getelementptr inbounds nuw i8, ptr %1, i64 32
  store ptr @ett_bc_oct_3, ptr %5, align 16
  %6 = getelementptr inbounds nuw i8, ptr %1, i64 40
  store ptr @ett_bc_oct_3a, ptr %6, align 8
  %7 = getelementptr inbounds nuw i8, ptr %1, i64 48
  store ptr @ett_bc_oct_4, ptr %7, align 16
  %8 = getelementptr inbounds nuw i8, ptr %1, i64 56
  store ptr @ett_bc_oct_5, ptr %8, align 8
  %9 = getelementptr inbounds nuw i8, ptr %1, i64 64
  store ptr @ett_bc_oct_5a, ptr %9, align 16
  %10 = getelementptr inbounds nuw i8, ptr %1, i64 72
  store ptr @ett_bc_oct_5b, ptr %10, align 8
  %11 = getelementptr inbounds nuw i8, ptr %1, i64 80
  store ptr @ett_bc_oct_6, ptr %11, align 16
  %12 = getelementptr inbounds nuw i8, ptr %1, i64 88
  store ptr @ett_bc_oct_6a, ptr %12, align 8
  %13 = getelementptr inbounds nuw i8, ptr %1, i64 96
  store ptr @ett_bc_oct_6b, ptr %13, align 16
  %14 = getelementptr inbounds nuw i8, ptr %1, i64 104
  store ptr @ett_bc_oct_6c, ptr %14, align 8
  %15 = getelementptr inbounds nuw i8, ptr %1, i64 112
  store ptr @ett_bc_oct_6d, ptr %15, align 16
  %16 = getelementptr inbounds nuw i8, ptr %1, i64 120
  store ptr @ett_bc_oct_6e, ptr %16, align 8
  %17 = getelementptr inbounds nuw i8, ptr %1, i64 128
  store ptr @ett_bc_oct_6f, ptr %17, align 16
  %18 = getelementptr inbounds nuw i8, ptr %1, i64 136
  store ptr @ett_bc_oct_6g, ptr %18, align 8
  %19 = getelementptr inbounds nuw i8, ptr %1, i64 144
  store ptr @ett_bc_oct_7, ptr %19, align 16
  %20 = getelementptr inbounds nuw i8, ptr %1, i64 152
  store ptr @ett_epc_ue_tl_a_lb_setup, ptr %20, align 8
  %21 = getelementptr inbounds nuw i8, ptr %1, i64 160
  store ptr @ett_mm_timer, ptr %21, align 16
  %22 = getelementptr inbounds nuw i8, ptr %1, i64 168
  store ptr @ett_ue_test_loop_mode, ptr %22, align 8
  br label %23

23:                                               ; preds = %0, %23
  %indvars.iv62 = phi i64 [ 22, %0 ], [ %indvars.iv.next63, %23 ]
  %indvars.iv = phi i64 [ 0, %0 ], [ %indvars.iv.next, %23 ]
  %24 = getelementptr [24 x i32], ptr @ett_gsm_dtap_msg_mm, i64 0, i64 %indvars.iv
  %25 = getelementptr [229 x ptr], ptr %1, i64 0, i64 %indvars.iv62
  store ptr %24, ptr %25, align 8
  %indvars.iv.next = add nuw nsw i64 %indvars.iv, 1
  %indvars.iv.next63 = add nuw nsw i64 %indvars.iv62, 1
  %exitcond.not = icmp eq i64 %indvars.iv.next, 24
  br i1 %exitcond.not, label %.preheader45, label %23, !llvm.loop !15

.preheader45:                                     ; preds = %23, %.preheader45
  %indvars.iv69 = phi i64 [ %indvars.iv.next70, %.preheader45 ], [ 46, %23 ]
  %indvars.iv67 = phi i64 [ %indvars.iv.next68, %.preheader45 ], [ 0, %23 ]
  %26 = getelementptr [36 x i32], ptr @ett_gsm_dtap_msg_cc, i64 0, i64 %indvars.iv67
  %27 = getelementptr [229 x ptr], ptr %1, i64 0, i64 %indvars.iv69
  store ptr %26, ptr %27, align 8
  %indvars.iv.next68 = add nuw nsw i64 %indvars.iv67, 1
  %indvars.iv.next70 = add nuw nsw i64 %indvars.iv69, 1
  %exitcond74.not = icmp eq i64 %indvars.iv.next68, 36
  br i1 %exitcond74.not, label %.preheader44, label %.preheader45, !llvm.loop !16

.preheader44:                                     ; preds = %.preheader45, %.preheader44
  %indvars.iv77 = phi i64 [ %indvars.iv.next78, %.preheader44 ], [ 82, %.preheader45 ]
  %indvars.iv75 = phi i64 [ %indvars.iv.next76, %.preheader44 ], [ 0, %.preheader45 ]
  %28 = getelementptr [4 x i32], ptr @ett_gsm_dtap_msg_sms, i64 0, i64 %indvars.iv75
  %29 = getelementptr [229 x ptr], ptr %1, i64 0, i64 %indvars.iv77
  store ptr %28, ptr %29, align 8
  %indvars.iv.next76 = add nuw nsw i64 %indvars.iv75, 1
  %indvars.iv.next78 = add nuw nsw i64 %indvars.iv77, 1
  %exitcond82.not = icmp eq i64 %indvars.iv.next76, 4
  br i1 %exitcond82.not, label %.preheader43, label %.preheader44, !llvm.loop !17

.preheader43:                                     ; preds = %.preheader44, %.preheader43
  %indvars.iv85 = phi i64 [ %indvars.iv.next86, %.preheader43 ], [ 86, %.preheader44 ]
  %indvars.iv83 = phi i64 [ %indvars.iv.next84, %.preheader43 ], [ 0, %.preheader44 ]
  %30 = getelementptr [4 x i32], ptr @ett_gsm_dtap_msg_ss, i64 0, i64 %indvars.iv83
  %31 = getelementptr [229 x ptr], ptr %1, i64 0, i64 %indvars.iv85
  store ptr %30, ptr %31, align 8
  %indvars.iv.next84 = add nuw nsw i64 %indvars.iv83, 1
  %indvars.iv.next86 = add nuw nsw i64 %indvars.iv85, 1
  %exitcond90.not = icmp eq i64 %indvars.iv.next84, 4
  br i1 %exitcond90.not, label %.preheader42, label %.preheader43, !llvm.loop !18

.preheader42:                                     ; preds = %.preheader43, %.preheader42
  %indvars.iv93 = phi i64 [ %indvars.iv.next94, %.preheader42 ], [ 90, %.preheader43 ]
  %indvars.iv91 = phi i64 [ %indvars.iv.next92, %.preheader42 ], [ 0, %.preheader43 ]
  %32 = getelementptr [42 x i32], ptr @ett_gsm_dtap_msg_tp, i64 0, i64 %indvars.iv91
  %33 = getelementptr [229 x ptr], ptr %1, i64 0, i64 %indvars.iv93
  store ptr %32, ptr %33, align 8
  %indvars.iv.next92 = add nuw nsw i64 %indvars.iv91, 1
  %indvars.iv.next94 = add nuw nsw i64 %indvars.iv93, 1
  %exitcond98.not = icmp eq i64 %indvars.iv.next92, 42
  br i1 %exitcond98.not, label %.preheader, label %.preheader42, !llvm.loop !19

.preheader:                                       ; preds = %.preheader42, %.preheader
  %indvars.iv101 = phi i64 [ %indvars.iv.next102, %.preheader ], [ 132, %.preheader42 ]
  %indvars.iv99 = phi i64 [ %indvars.iv.next100, %.preheader ], [ 0, %.preheader42 ]
  %34 = getelementptr [97 x i32], ptr @ett_gsm_dtap_elem, i64 0, i64 %indvars.iv99
  %35 = getelementptr [229 x ptr], ptr %1, i64 0, i64 %indvars.iv101
  store ptr %34, ptr %35, align 8
  %indvars.iv.next100 = add nuw nsw i64 %indvars.iv99, 1
  %indvars.iv.next102 = add nuw nsw i64 %indvars.iv101, 1
  %exitcond106.not = icmp eq i64 %indvars.iv.next100, 97
  br i1 %exitcond106.not, label %36, label %.preheader, !llvm.loop !20

36:                                               ; preds = %.preheader
  %37 = tail call i32 @proto_register_protocol(ptr noundef nonnull @.str.677, ptr noundef nonnull @.str.678, ptr noundef nonnull @.str.679)
  store i32 %37, ptr @proto_a_dtap, align 4
  tail call void @proto_register_field_array(i32 noundef %37, ptr noundef nonnull @proto_register_gsm_a_dtap.hf, i32 noundef 250)
  call void @proto_register_subtree_array(ptr noundef nonnull %1, i32 noundef 229)
  %38 = load i32, ptr @proto_a_dtap, align 4
  %39 = call ptr @expert_register_protocol(i32 noundef %38)
  call void @expert_register_field_array(ptr noundef %39, ptr noundef nonnull @proto_register_gsm_a_dtap.ei, i32 noundef 11)
  %40 = load i32, ptr @proto_a_dtap, align 4
  %41 = call ptr @register_dissector(ptr noundef nonnull @.str.680, ptr noundef nonnull @dissect_dtap, i32 noundef %40)
  store ptr %41, ptr @dtap_handle, align 8
  %42 = load i32, ptr @proto_a_dtap, align 4
  %43 = call ptr @register_dissector_table(ptr noundef nonnull @.str.328, ptr noundef nonnull @.str.681, i32 noundef %42, i32 noundef 4, i32 noundef 1)
  store ptr %43, ptr @u2u_dissector_table, align 8
  call void @llvm.lifetime.end.p0(i64 1832, ptr nonnull %1) #8
  ret void
}